target datalayout = "e-m:e-p270:32:32-p271:32:32-p272:64:64-i64:64-i128:128-f80:128-n8:16:32:64-S128"
target triple = "x86_64-unknown-linux-gnu"

%"class.openvdb::v11_0::points::AttributeSet" = type { %"class.std::shared_ptr", %"class.std::vector" }
%"class.std::shared_ptr" = type { %"class.std::__shared_ptr" }
%"class.std::__shared_ptr" = type { ptr, %"class.std::__shared_count" }
%"class.std::__shared_count" = type { ptr }
%"class.std::vector" = type { %"struct.std::_Vector_base" }
%"struct.std::_Vector_base" = type { %"struct.std::_Vector_base<std::shared_ptr<openvdb::v11_0::points::AttributeArray>, std::allocator<std::shared_ptr<openvdb::v11_0::points::AttributeArray>>>::_Vector_impl" }
%"struct.std::_Vector_base<std::shared_ptr<openvdb::v11_0::points::AttributeArray>, std::allocator<std::shared_ptr<openvdb::v11_0::points::AttributeArray>>>::_Vector_impl" = type { %"struct.std::_Vector_base<std::shared_ptr<openvdb::v11_0::points::AttributeArray>, std::allocator<std::shared_ptr<openvdb::v11_0::points::AttributeArray>>>::_Vector_impl_data" }
%"struct.std::_Vector_base<std::shared_ptr<openvdb::v11_0::points::AttributeArray>, std::allocator<std::shared_ptr<openvdb::v11_0::points::AttributeArray>>>::_Vector_impl_data" = type { ptr, ptr, ptr }
%"class.std::shared_ptr.18" = type { %"class.std::__shared_ptr.19" }
%"class.std::__shared_ptr.19" = type { ptr, %"class.std::__shared_count" }

; Function Attrs: mustprogress nounwind uwtable
define linkonce_odr noundef ptr @_ZNKSt12__shared_ptrIN7openvdb5v11_06points14AttributeArrayELN9__gnu_cxx12_Lock_policyE2EE3getEv(ptr noundef nonnull align 8 dereferenceable(16) %this) #7 comdat align 2 {
entry:
  %this.addr = alloca ptr, align 8
  store ptr %this, ptr %this.addr, align 8
  %this1 = load ptr, ptr %this.addr, align 8
  %_M_ptr = getelementptr inbounds %"class.std::__shared_ptr.19", ptr %this1, i32 0, i32 0
  %0 = load ptr, ptr %_M_ptr, align 8
  ret ptr %0
}

; Function Attrs: mustprogress nounwind uwtable
define linkonce_odr noundef ptr @_ZNKSt12__shared_ptrIN7openvdb5v11_06points12AttributeSet10DescriptorELN9__gnu_cxx12_Lock_policyE2EE3getEv(ptr noundef nonnull align 8 dereferenceable(16) %this) #7 comdat align 2 {
entry:
  %this.addr = alloca ptr, align 8
  store ptr %this, ptr %this.addr, align 8
  %this1 = load ptr, ptr %this.addr, align 8
  %_M_ptr = getelementptr inbounds %"class.std::__shared_ptr", ptr %this1, i32 0, i32 0
  %0 = load ptr, ptr %_M_ptr, align 8
  ret ptr %0
}

; Function Attrs: mustprogress nounwind uwtable
define linkonce_odr noundef ptr @_ZNKSt19__shared_ptr_accessIN7openvdb5v11_06points14AttributeArrayELN9__gnu_cxx12_Lock_policyE2ELb0ELb0EE6_M_getEv(ptr noundef nonnull align 1 dereferenceable(1) %this) #7 comdat align 2 {
entry:
  %this.addr = alloca ptr, align 8
  store ptr %this, ptr %this.addr, align 8
  %this1 = load ptr, ptr %this.addr, align 8
  %call = call noundef ptr @_ZNKSt12__shared_ptrIN7openvdb5v11_06points14AttributeArrayELN9__gnu_cxx12_Lock_policyE2EE3getEv(ptr noundef nonnull align 8 dereferenceable(16) %this1) #3
  ret ptr %call
}

; Function Attrs: mustprogress nounwind uwtable
define linkonce_odr noundef ptr @_ZNKSt19__shared_ptr_accessIN7openvdb5v11_06points12AttributeSet10DescriptorELN9__gnu_cxx12_Lock_policyE2ELb0ELb0EE6_M_getEv(ptr noundef nonnull align 1 dereferenceable(1) %this) #7 comdat align 2 {
entry:
  %this.addr = alloca ptr, align 8
  store ptr %this, ptr %this.addr, align 8
  %this1 = load ptr, ptr %this.addr, align 8
  %call = call noundef ptr @_ZNKSt12__shared_ptrIN7openvdb5v11_06points12AttributeSet10DescriptorELN9__gnu_cxx12_Lock_policyE2EE3getEv(ptr noundef nonnull align 8 dereferenceable(16) %this1) #3
  ret ptr %call
}

; Function Attrs: mustprogress nounwind uwtable
define linkonce_odr noundef ptr @_ZNKSt19__shared_ptr_accessIN7openvdb5v11_06points14AttributeArrayELN9__gnu_cxx12_Lock_policyE2ELb0ELb0EEptEv(ptr noundef nonnull align 1 dereferenceable(1) %this) #7 comdat align 2 {
entry:
  %this.addr = alloca ptr, align 8
  store ptr %this, ptr %this.addr, align 8
  %this1 = load ptr, ptr %this.addr, align 8
  %call = call noundef ptr @_ZNKSt19__shared_ptr_accessIN7openvdb5v11_06points14AttributeArrayELN9__gnu_cxx12_Lock_policyE2ELb0ELb0EE6_M_getEv(ptr noundef nonnull align 1 dereferenceable(1) %this1) #3
  ret ptr %call
}

; Function Attrs: mustprogress nounwind uwtable
define linkonce_odr noundef nonnull align 8 dereferenceable(16) ptr @_ZNSt6vectorISt10shared_ptrIN7openvdb5v11_06points14AttributeArrayEESaIS5_EEixEm(ptr noundef nonnull align 8 dereferenceable(24) %this, i64 noundef %__n) #7 comdat align 2 {
entry:
  %this.addr = alloca ptr, align 8
  %__n.addr = alloca i64, align 8
  store ptr %this, ptr %this.addr, align 8
  store i64 %__n, ptr %__n.addr, align 8
  %this1 = load ptr, ptr %this.addr, align 8
  %_M_impl = getelementptr inbounds %"struct.std::_Vector_base", ptr %this1, i32 0, i32 0
  %_M_start = getelementptr inbounds %"struct.std::_Vector_base<std::shared_ptr<openvdb::v11_0::points::AttributeArray>, std::allocator<std::shared_ptr<openvdb::v11_0::points::AttributeArray>>>::_Vector_impl_data", ptr %_M_impl, i32 0, i32 0
  %0 = load ptr, ptr %_M_start, align 8
  %1 = load i64, ptr %__n.addr, align 8
  %add.ptr = getelementptr inbounds %"class.std::shared_ptr.18", ptr %0, i64 %1
  ret ptr %add.ptr
}

; Function Attrs: mustprogress nounwind uwtable
define linkonce_odr noundef i64 @_ZNKSt6vectorISt10shared_ptrIN7openvdb5v11_06points14AttributeArrayEESaIS5_EE4sizeEv(ptr noundef nonnull align 8 dereferenceable(24) %this) #7 comdat align 2 {
entry:
  %this.addr = alloca ptr, align 8
  store ptr %this, ptr %this.addr, align 8
  %this1 = load ptr, ptr %this.addr, align 8
  %_M_impl = getelementptr inbounds %"struct.std::_Vector_base", ptr %this1, i32 0, i32 0
  %_M_finish = getelementptr inbounds %"struct.std::_Vector_base<std::shared_ptr<openvdb::v11_0::points::AttributeArray>, std::allocator<std::shared_ptr<openvdb::v11_0::points::AttributeArray>>>::_Vector_impl_data", ptr %_M_impl, i32 0, i32 1
  %0 = load ptr, ptr %_M_finish, align 8
  %_M_impl2 = getelementptr inbounds %"struct.std::_Vector_base", ptr %this1, i32 0, i32 0
  %_M_start = getelementptr inbounds %"struct.std::_Vector_base<std::shared_ptr<openvdb::v11_0::points::AttributeArray>, std::allocator<std::shared_ptr<openvdb::v11_0::points::AttributeArray>>>::_Vector_impl_data", ptr %_M_impl2, i32 0, i32 0
  %1 = load ptr, ptr %_M_start, align 8
  %sub.ptr.lhs.cast = ptrtoint ptr %0 to i64
  %sub.ptr.rhs.cast = ptrtoint ptr %1 to i64
  %sub.ptr.sub = sub i64 %sub.ptr.lhs.cast, %sub.ptr.rhs.cast
  %sub.ptr.div = sdiv exact i64 %sub.ptr.sub, 16
  ret i64 %sub.ptr.div
}

; Function Attrs: mustprogress nounwind uwtable
define linkonce_odr noundef ptr @_ZNKSt19__shared_ptr_accessIN7openvdb5v11_06points12AttributeSet10DescriptorELN9__gnu_cxx12_Lock_policyE2ELb0ELb0EEptEv(ptr noundef nonnull align 1 dereferenceable(1) %this) #7 comdat align 2 {
entry:
  %this.addr = alloca ptr, align 8
  store ptr %this, ptr %this.addr, align 8
  %this1 = load ptr, ptr %this.addr, align 8
  %call = call noundef ptr @_ZNKSt19__shared_ptr_accessIN7openvdb5v11_06points12AttributeSet10DescriptorELN9__gnu_cxx12_Lock_policyE2ELb0ELb0EE6_M_getEv(ptr noundef nonnull align 1 dereferenceable(1) %this1) #3
  ret ptr %call
}

; Function Attrs: mustprogress uwtable
define void @_ZN7openvdb5v11_06points12AttributeSet14readAttributesERSi(ptr noundef nonnull align 8 dereferenceable(40) %this, ptr noundef nonnull align 8 dereferenceable(16) %is) #4 align 2 {
entry:
  %this.addr = alloca ptr, align 8
  %is.addr = alloca ptr, align 8
  %i = alloca i64, align 8
  store ptr %this, ptr %this.addr, align 8
  store ptr %is, ptr %is.addr, align 8
  %this1 = load ptr, ptr %this.addr, align 8
  store i64 0, ptr %i, align 8
  br label %for.cond

for.cond:                                         ; preds = %for.inc, %entry
  %0 = load i64, ptr %i, align 8
  %mAttrs = getelementptr inbounds %"class.openvdb::v11_0::points::AttributeSet", ptr %this1, i32 0, i32 1
  %call = call noundef i64 @_ZNKSt6vectorISt10shared_ptrIN7openvdb5v11_06points14AttributeArrayEESaIS5_EE4sizeEv(ptr noundef nonnull align 8 dereferenceable(24) %mAttrs) #3
  %cmp = icmp ult i64 %0, %call
  br i1 %cmp, label %for.body, label %for.end

for.body:                                         ; preds = %for.cond
  %mAttrs2 = getelementptr inbounds %"class.openvdb::v11_0::points::AttributeSet", ptr %this1, i32 0, i32 1
  %1 = load i64, ptr %i, align 8
  %call3 = call noundef nonnull align 8 dereferenceable(16) ptr @_ZNSt6vectorISt10shared_ptrIN7openvdb5v11_06points14AttributeArrayEESaIS5_EEixEm(ptr noundef nonnull align 8 dereferenceable(24) %mAttrs2, i64 noundef %1) #3
  %call4 = call noundef ptr @_ZNKSt19__shared_ptr_accessIN7openvdb5v11_06points14AttributeArrayELN9__gnu_cxx12_Lock_policyE2ELb0ELb0EEptEv(ptr noundef nonnull align 1 dereferenceable(1) %call3) #3
  %2 = load ptr, ptr %is.addr, align 8
  %vtable = load ptr, ptr %call4, align 8
  %vfn = getelementptr inbounds ptr, ptr %vtable, i64 27
  %3 = load ptr, ptr %vfn, align 8
  call void %3(ptr noundef nonnull align 8 dereferenceable(24) %call4, ptr noundef nonnull align 8 dereferenceable(16) %2)
  br label %for.inc

for.inc:                                          ; preds = %for.body
  %4 = load i64, ptr %i, align 8
  %inc = add i64 %4, 1
  store i64 %inc, ptr %i, align 8
  br label %for.cond, !llvm.loop !11

for.end:                                          ; preds = %for.cond
  ret void
}

; Function Attrs: mustprogress uwtable
define void @_ZN7openvdb5v11_06points12AttributeSet14readDescriptorERSi(ptr noundef nonnull align 8 dereferenceable(40) %this, ptr noundef nonnull align 8 dereferenceable(16) %is) #4 align 2 {
entry:
  %this.addr = alloca ptr, align 8
  %is.addr = alloca ptr, align 8
  store ptr %this, ptr %this.addr, align 8
  store ptr %is, ptr %is.addr, align 8
  %this1 = load ptr, ptr %this.addr, align 8
  %mDescr = getelementptr inbounds %"class.openvdb::v11_0::points::AttributeSet", ptr %this1, i32 0, i32 0
  %call = call noundef ptr @_ZNKSt19__shared_ptr_accessIN7openvdb5v11_06points12AttributeSet10DescriptorELN9__gnu_cxx12_Lock_policyE2ELb0ELb0EEptEv(ptr noundef nonnull align 1 dereferenceable(1) %mDescr) #3
  %0 = load ptr, ptr %is.addr, align 8
  call void @_ZN7openvdb5v11_06points12AttributeSet10Descriptor4readERSi(ptr noundef nonnull align 8 dereferenceable(240) %call, ptr noundef nonnull align 8 dereferenceable(16) %0)
  ret void
}

; Function Attrs: mustprogress uwtable
define void @_ZN7openvdb5v11_06points12AttributeSet4readERSi(ptr noundef nonnull align 8 dereferenceable(40) %this, ptr noundef nonnull align 8 dereferenceable(16) %is) #4 align 2 {
entry:
  %this.addr = alloca ptr, align 8
  %is.addr = alloca ptr, align 8
  store ptr %this, ptr %this.addr, align 8
  store ptr %is, ptr %is.addr, align 8
  %this1 = load ptr, ptr %this.addr, align 8
  %0 = load ptr, ptr %is.addr, align 8
  call void @_ZN7openvdb5v11_06points12AttributeSet14readDescriptorERSi(ptr noundef nonnull align 8 dereferenceable(40) %this1, ptr noundef nonnull align 8 dereferenceable(16) %0)
  %1 = load ptr, ptr %is.addr, align 8
  call void @_ZN7openvdb5v11_06points12AttributeSet12readMetadataERSi(ptr noundef nonnull align 8 dereferenceable(40) %this1, ptr noundef nonnull align 8 dereferenceable(16) %1)
  %2 = load ptr, ptr %is.addr, align 8
  call void @_ZN7openvdb5v11_06points12AttributeSet14readAttributesERSi(ptr noundef nonnull align 8 dereferenceable(40) %this1, ptr noundef nonnull align 8 dereferenceable(16) %2)
  ret void
}