; Function Attrs: mustprogress uwtable
define void @_ZN7openvdb5v11_06points12AttributeSet4readERSi(ptr nocapture noundef nonnull align 8 dereferenceable(40) %this, ptr noundef nonnull align 8 dereferenceable(16) %is) local_unnamed_addr #3 align 2 {
entry:
  %0 = load ptr, ptr %this, align 8
  tail call void @_ZN7openvdb5v11_06points12AttributeSet10Descriptor4readERSi(ptr noundef nonnull align 8 dereferenceable(240) %0, ptr noundef nonnull align 8 dereferenceable(16) %is)
  tail call void @_ZN7openvdb5v11_06points12AttributeSet12readMetadataERSi(ptr noundef nonnull align 8 dereferenceable(40) %this, ptr noundef nonnull align 8 dereferenceable(16) %is)
  %mAttrs.i = getelementptr inbounds i8, ptr %this, i64 16
  %_M_finish.i.i = getelementptr inbounds i8, ptr %this, i64 24
  %1 = load ptr, ptr %_M_finish.i.i, align 8
  %2 = load ptr, ptr %mAttrs.i, align 8
  %cmp7.not.i = icmp eq ptr %1, %2
  br i1 %cmp7.not.i, label %_ZN7openvdb5v11_06points12AttributeSet14readAttributesERSi.exit, label %for.body.i

for.body.i:                                       ; preds = %entry, %for.body.i
  %3 = phi ptr [ %7, %for.body.i ], [ %2, %entry ]
  %i.08.i = phi i64 [ %inc.i, %for.body.i ], [ 0, %entry ]
  %add.ptr.i.i = getelementptr inbounds %"class.std::shared_ptr.18", ptr %3, i64 %i.08.i
  %4 = load ptr, ptr %add.ptr.i.i, align 8
  %vtable.i = load ptr, ptr %4, align 8
  %vfn.i = getelementptr inbounds i8, ptr %vtable.i, i64 216
  %5 = load ptr, ptr %vfn.i, align 8
  tail call void %5(ptr noundef nonnull align 8 dereferenceable(24) %4, ptr noundef nonnull align 8 dereferenceable(16) %is)
  %inc.i = add nuw i64 %i.08.i, 1
  %6 = load ptr, ptr %_M_finish.i.i, align 8
  %7 = load ptr, ptr %mAttrs.i, align 8
  %sub.ptr.lhs.cast.i.i = ptrtoint ptr %6 to i64
  %sub.ptr.rhs.cast.i.i = ptrtoint ptr %7 to i64
  %sub.ptr.sub.i.i = sub i64 %sub.ptr.lhs.cast.i.i, %sub.ptr.rhs.cast.i.i
  %sub.ptr.div.i.i = ashr exact i64 %sub.ptr.sub.i.i, 4
  %cmp.i = icmp ult i64 %inc.i, %sub.ptr.div.i.i
  br i1 %cmp.i, label %for.body.i, label %_ZN7openvdb5v11_06points12AttributeSet14readAttributesERSi.exit, !llvm.loop !44

_ZN7openvdb5v11_06points12AttributeSet14readAttributesERSi.exit: ; preds = %for.body.i, %entry
  ret void
}